 CylinderSim_cgxe

 Timestamp is 57052243 (Wed Apr 06 09:50:43 2016)

 Preferred load address is 0000000180000000

 Start         Length     Name                   Class
 0001:00000000 000158d4H .text                   CODE
 0001:000158e0 00000092H .text$x                 CODE
 0002:00000000 00000368H .idata$5                DATA
 0002:00000368 00000008H .CRT$XCA                DATA
 0002:00000370 00000008H .CRT$XCZ                DATA
 0002:00000378 00000008H .CRT$XIA                DATA
 0002:00000380 00000008H .CRT$XIAA               DATA
 0002:00000388 00000008H .CRT$XIZ                DATA
 0002:00000390 0000074cH .rdata                  DATA
 0002:00000ae0 00000008H .rtc$IAA                DATA
 0002:00000ae8 00000008H .rtc$IZZ                DATA
 0002:00000af0 00000008H .rtc$TAA                DATA
 0002:00000af8 00000008H .rtc$TZZ                DATA
 0002:00000b00 000005c8H .xdata                  DATA
 0002:000010c8 0000008cH .idata$2                DATA
 0002:00001154 00000014H .idata$3                DATA
 0002:00001168 00000368H .idata$4                DATA
 0002:000014d0 000007e4H .idata$6                DATA
 0002:00001cc0 00000056H .edata                  DATA
 0003:00000000 00007cacH .data                   DATA
 0003:00007cc0 000016a8H .bss                    DATA
 0004:00000000 0000069cH .pdata                  DATA

  Address         Publics by Value              Rva+Base               Lib:Object

 0000:00000000       ___safe_se_handler_table   0000000000000000     <absolute>
 0000:00000000       ___safe_se_handler_count   0000000000000000     <absolute>
 0000:00000000       __ImageBase                0000000180000000     <linker-defined>
 0001:00000000       cgxe_CylinderSim_initializer 0000000180001000 f   CylinderSim_cgxe.obj
 0001:00000060       cgxe_CylinderSim_terminator 0000000180001060 f   CylinderSim_cgxe.obj
 0001:000000a0       cgxe_CylinderSim_method_dispatcher 00000001800010a0 f   CylinderSim_cgxe.obj
 0001:00000120       cgxe_CylinderSim_autoInfer_dispatcher 0000000180001120 f   CylinderSim_cgxe.obj
 0001:000001b0       method_dispatcher_eJG1O6WbMNFUvHWZ3mwzSC 00000001800011b0 f   m_eJG1O6WbMNFUvHWZ3mwzSC.obj
 0001:00006660       autoInfer_dispatcher_eJG1O6WbMNFUvHWZ3mwzSC 0000000180007660 f   m_eJG1O6WbMNFUvHWZ3mwzSC.obj
 0001:0000eab0       cgxe_eJG1O6WbMNFUvHWZ3mwzSC_BuildInfoUpdate 000000018000fab0 f   m_eJG1O6WbMNFUvHWZ3mwzSC.obj
 0001:0000ec10       _ssSetStateAbsTol          000000018000fc10 f   CylinderSim_cgxe_registry.obj
 0001:0000ecf0       _ssGetAbsTol               000000018000fcf0 f   CylinderSim_cgxe_registry.obj
 0001:0000ed60       _ssSetInputPortMatrixDimensions 000000018000fd60 f   CylinderSim_cgxe_registry.obj
 0001:0000ee70       _ssSetOutputPortMatrixDimensions 000000018000fe70 f   CylinderSim_cgxe_registry.obj
 0001:0000ef80       _ssSetInputPortVectorDimension 000000018000ff80 f   CylinderSim_cgxe_registry.obj
 0001:0000f050       _ssSetOutputPortVectorDimension 0000000180010050 f   CylinderSim_cgxe_registry.obj
 0001:0000f120       _ssSetSymbolicDimsSupport  0000000180010120 f   CylinderSim_cgxe_registry.obj
 0001:0000f190       _ssRegisterSymbolicDimsExpr 0000000180010190 f   CylinderSim_cgxe_registry.obj
 0001:0000f210       _ssRegisterSymbolicDims    0000000180010210 f   CylinderSim_cgxe_registry.obj
 0001:0000f2b0       _ssRegisterSymbolicDimsString 00000001800102b0 f   CylinderSim_cgxe_registry.obj
 0001:0000f330       _ssRegisterSymbolicDimsIntValue 0000000180010330 f   CylinderSim_cgxe_registry.obj
 0001:0000f3a0       _ssRegisterSymbolicDimsPlus 00000001800103a0 f   CylinderSim_cgxe_registry.obj
 0001:0000f420       _ssRegisterSymbolicDimsMinus 0000000180010420 f   CylinderSim_cgxe_registry.obj
 0001:0000f4a0       _ssRegisterSymbolicDimsMultiply 00000001800104a0 f   CylinderSim_cgxe_registry.obj
 0001:0000f520       _ssRegisterSymbolicDimsDivide 0000000180010520 f   CylinderSim_cgxe_registry.obj
 0001:0000f5a0       _ssGetNumSymbolicDims      00000001800105a0 f   CylinderSim_cgxe_registry.obj
 0001:0000f610       _ssGetSymbolicDim          0000000180010610 f   CylinderSim_cgxe_registry.obj
 0001:0000f690       _ssSetInputPortSymbolicDimsId 0000000180010690 f   CylinderSim_cgxe_registry.obj
 0001:0000f700       _ssGetCompInputPortSymbolicDimsId 0000000180010700 f   CylinderSim_cgxe_registry.obj
 0001:0000f770       _ssSetCompInputPortSymbolicDimsId 0000000180010770 f   CylinderSim_cgxe_registry.obj
 0001:0000f7e0       _ssSetOutputPortSymbolicDimsId 00000001800107e0 f   CylinderSim_cgxe_registry.obj
 0001:0000f850       _ssGetCompOutputPortSymbolicDimsId 0000000180010850 f   CylinderSim_cgxe_registry.obj
 0001:0000f8c0       _ssSetCompOutputPortSymbolicDimsId 00000001800108c0 f   CylinderSim_cgxe_registry.obj
 0001:0000f930       _ssSetCompDWorkSymbolicDimsId 0000000180010930 f   CylinderSim_cgxe_registry.obj
 0001:0000f9a0       ssIsRunTimeParamTunable    00000001800109a0 f   CylinderSim_cgxe_registry.obj
 0001:0000fa10       ssGetSFuncBlockHandle      0000000180010a10 f   CylinderSim_cgxe_registry.obj
 0001:0000fa80       _ssGetCurrentInputPortWidth 0000000180010a80 f   CylinderSim_cgxe_registry.obj
 0001:0000fba0       _ssGetCurrentOutputPortWidth 0000000180010ba0 f   CylinderSim_cgxe_registry.obj
 0001:0000fcc0       _ssGetCallSystemNumFcnCallDestinations 0000000180010cc0 f   CylinderSim_cgxe_registry.obj
 0001:0000fd30       ssWarning                  0000000180010d30 f   CylinderSim_cgxe_registry.obj
 0001:0000fe40       ssGetIsZeroCrossControlDisabled 0000000180010e40 f   CylinderSim_cgxe_registry.obj
 0001:0000feb0       ssSetIsInputPortUsedForContZcSignal 0000000180010eb0 f   CylinderSim_cgxe_registry.obj
 0001:0000ff20       ssSetZcSignalIsZcElementDisc 0000000180010f20 f   CylinderSim_cgxe_registry.obj
 0001:0000ffd0       ssSetZcSignalName          0000000180010fd0 f   CylinderSim_cgxe_registry.obj
 0001:00010040       ssSetZcSignalWidth         0000000180011040 f   CylinderSim_cgxe_registry.obj
 0001:000100b0       ssSetZcSignalZcEventType   00000001800110b0 f   CylinderSim_cgxe_registry.obj
 0001:00010120       ssSetZcSignalType          0000000180011120 f   CylinderSim_cgxe_registry.obj
 0001:00010190       ssSetZcSignalZcTol         0000000180011190 f   CylinderSim_cgxe_registry.obj
 0001:00010200       ssSetZcSignalNeedsEventNotification 0000000180011200 f   CylinderSim_cgxe_registry.obj
 0001:00010270       ssCreateAndAddZcSignalInfo 0000000180011270 f   CylinderSim_cgxe_registry.obj
 0001:000102e0       ssCloneAndAddZcSignalInfo  00000001800112e0 f   CylinderSim_cgxe_registry.obj
 0001:00010350       ssGetNumZcSignals          0000000180011350 f   CylinderSim_cgxe_registry.obj
 0001:000103c0       ssGetZcSignalVector        00000001800113c0 f   CylinderSim_cgxe_registry.obj
 0001:00010430       ssGetZcSignalZcEvents      0000000180011430 f   CylinderSim_cgxe_registry.obj
 0001:000104a0       ssGetZcSignalName          00000001800114a0 f   CylinderSim_cgxe_registry.obj
 0001:00010510       ssGetZcSignalWidth         0000000180011510 f   CylinderSim_cgxe_registry.obj
 0001:00010580       ssGetZcSignalZcEventType   0000000180011580 f   CylinderSim_cgxe_registry.obj
 0001:000105f0       ssGetZcSignalType          00000001800115f0 f   CylinderSim_cgxe_registry.obj
 0001:00010660       ssGetZcSignalZcTol         0000000180011660 f   CylinderSim_cgxe_registry.obj
 0001:000106e0       ssGetZcSignalNeedsEventNotification 00000001800116e0 f   CylinderSim_cgxe_registry.obj
 0001:00010750       ssGetZcSignalIsZcElementDisc 0000000180011750 f   CylinderSim_cgxe_registry.obj
 0001:000107f0       ssGetIsInputPortElementContinuous 00000001800117f0 f   CylinderSim_cgxe_registry.obj
 0001:00010890       _ssGetInputPortSignalPtrsFcn 0000000180011890 f   CylinderSim_cgxe_registry.obj
 0001:00010b50       _ssGetInputPortSignalFcn   0000000180011b50 f   CylinderSim_cgxe_registry.obj
 0001:00010d70       _ssSetInputPortDirectFeedThroughFcn 0000000180011d70 f   CylinderSim_cgxe_registry.obj
 0001:00010ed0       _ssSetInputPortReusableFcn 0000000180011ed0 f   CylinderSim_cgxe_registry.obj
 0001:00010fc0       _ssSetOutputPortReusableFcn 0000000180011fc0 f   CylinderSim_cgxe_registry.obj
 0001:000110a0       ssGetDTypeIdFromMxArray    00000001800120a0 f   CylinderSim_cgxe_registry.obj
 0001:000111c0       ssWriteRTWStr              00000001800121c0 f   CylinderSim_cgxe_registry.obj
 0001:00011220       ssWriteRTWMxVectParam      0000000180012220 f   CylinderSim_cgxe_registry.obj
 0001:00011280       ssWriteRTWMx2dMatParam     0000000180012280 f   CylinderSim_cgxe_registry.obj
 0001:00011300       ssWriteRTWNameValuePair    0000000180012300 f   CylinderSim_cgxe_registry.obj
 0001:000117f0       ssWriteRTWParameters       00000001800127f0 f   CylinderSim_cgxe_registry.obj
 0001:00011df0       ssWriteRTWParamSettings    0000000180012df0 f   CylinderSim_cgxe_registry.obj
 0001:000124c0       ssWriteRTWWorkVect         00000001800134c0 f   CylinderSim_cgxe_registry.obj
 0001:000129c0       mexFunction                00000001800139c0 f   CylinderSim_cgxe_registry.obj
 0001:00014d46       mxGetString_700            0000000180015d46 f   libmx:libmx.dll
 0001:00014d4c       mxGetPr                    0000000180015d4c f   libmx:libmx.dll
 0001:00014d52       mxGetData                  0000000180015d52 f   libmx:libmx.dll
 0001:00014d58       mxGetLogicals              0000000180015d58 f   libmx:libmx.dll
 0001:00014d5e       mxSetCell_700              0000000180015d5e f   libmx:libmx.dll
 0001:00014d64       mxCreateCellMatrix_700     0000000180015d64 f   libmx:libmx.dll
 0001:00014d6a       mxCreateString             0000000180015d6a f   libmx:libmx.dll
 0001:00014d70       mxGetClassID               0000000180015d70 f   libmx:libmx.dll
 0001:00014d76       mxIsChar                   0000000180015d76 f   libmx:libmx.dll
 0001:00014d7c       mxCreateDoubleMatrix_700   0000000180015d7c f   libmx:libmx.dll
 0001:00014d82       mxSetField_700             0000000180015d82 f   libmx:libmx.dll
 0001:00014d88       mxCreateStructMatrix_700   0000000180015d88 f   libmx:libmx.dll
 0001:00014d8e       mxCreateNumericMatrix_700  0000000180015d8e f   libmx:libmx.dll
 0001:00014d94       mxIsNumeric                0000000180015d94 f   libmx:libmx.dll
 0001:00014d9a       mxIsComplex                0000000180015d9a f   libmx:libmx.dll
 0001:00014da0       mxGetN                     0000000180015da0 f   libmx:libmx.dll
 0001:00014da6       mxGetM                     0000000180015da6 f   libmx:libmx.dll
 0001:00014dac       mxCalloc                   0000000180015dac f   libmx:libmx.dll
 0001:00014db2       mexWarnMsgTxt              0000000180015db2 f   libmex:libmex.dll
 0001:00014db8       mexCallMATLABWithObject    0000000180015db8 f   libmex:libmex.dll
 0001:00014dbe       mexPrintf                  0000000180015dbe f   libmex:libmex.dll
 0001:00014dc4       mexUnlock                  0000000180015dc4 f   libmex:libmex.dll
 0001:00014dca       mexIsLocked                0000000180015dca f   libmex:libmex.dll
 0001:00014dd0       mexErrMsgTxt               0000000180015dd0 f   libmex:libmex.dll
 0001:00014dd6       muDoubleScalarSin          0000000180015dd6 f   libmwmathutil:libmwmathutil.dll
 0001:00014ddc       muDoubleScalarCos          0000000180015ddc f   libmwmathutil:libmwmathutil.dll
 0001:00014de2       muDoubleScalarSign         0000000180015de2 f   libmwmathutil:libmwmathutil.dll
 0001:00014de8       muDoubleScalarAbs          0000000180015de8 f   libmwmathutil:libmwmathutil.dll
 0001:00014dee       emlrtCreateSimulinkRootTLS 0000000180015dee f   libemlrt:libemlrt.dll
 0001:00014df4       emlrtDestroyRootTLS        0000000180015df4 f   libemlrt:libemlrt.dll
 0001:00014dfa       emlrtRetrieveRunTimeError  0000000180015dfa f   libemlrt:libemlrt.dll
 0001:00014e00       emlrtSetJmpBuf             0000000180015e00 f   libemlrt:libemlrt.dll
 0001:00014e06       emlrtCreateLogicalScalar   0000000180015e06 f   libemlrt:libemlrt.dll
 0001:00014e0c       emlrtSetCell               0000000180015e0c f   libemlrt:libemlrt.dll
 0001:00014e12       emlrtCreateNumericArray    0000000180015e12 f   libemlrt:libemlrt.dll
 0001:00014e18       emlrtCreateDoubleScalar    0000000180015e18 f   libemlrt:libemlrt.dll
 0001:00014e1e       emlrtAddField              0000000180015e1e f   libemlrt:libemlrt.dll
 0001:00014e24       emlrtCreateNumericMatrix   0000000180015e24 f   libemlrt:libemlrt.dll
 0001:00014e2a       emlrtCreateStructMatrix    0000000180015e2a f   libemlrt:libemlrt.dll
 0001:00014e30       emlrtAssign                0000000180015e30 f   libemlrt:libemlrt.dll
 0001:00014e36       emlrtCreateCellMatrix      0000000180015e36 f   libemlrt:libemlrt.dll
 0001:00014e3c       emlrtAlias                 0000000180015e3c f   libemlrt:libemlrt.dll
 0001:00014e42       emlrtDestroyArray          0000000180015e42 f   libemlrt:libemlrt.dll
 0001:00014e48       emlrtGetCell               0000000180015e48 f   libemlrt:libemlrt.dll
 0001:00014e4e       emlrtGetFieldR2013a        0000000180015e4e f   libemlrt:libemlrt.dll
 0001:00014e54       emlrtCheckStructR2012b     0000000180015e54 f   libemlrt:libemlrt.dll
 0001:00014e5a       emlrtCheckBuiltInR2012b    0000000180015e5a f   libemlrt:libemlrt.dll
 0001:00014e60       emlrtInitCharArrayR2013a   0000000180015e60 f   libemlrt:libemlrt.dll
 0001:00014e66       emlrtCreateCharArray       0000000180015e66 f   libemlrt:libemlrt.dll
 0001:00014e6c       emlrtCallMATLABR2012b      0000000180015e6c f   libemlrt:libemlrt.dll
 0001:00014e72       emlrtNameCapturePostProcessR2013b 0000000180015e72 f   libemlrt:libemlrt.dll
 0001:00014e78       emlrtCreateString          0000000180015e78 f   libemlrt:libemlrt.dll
 0001:00014e7e       emlrtCreateStructArray     0000000180015e7e f   libemlrt:libemlrt.dll
 0001:00014e84       covrtLogBasicBlock         0000000180015e84 f   libcovrt:libcovrt.dll
 0001:00014e8a       covrtLogFcn                0000000180015e8a f   libcovrt:libcovrt.dll
 0001:00014e90       covrtScriptStart           0000000180015e90 f   libcovrt:libcovrt.dll
 0001:00014e96       covrtIfInit                0000000180015e96 f   libcovrt:libcovrt.dll
 0001:00014e9c       covrtBasicBlockInit        0000000180015e9c f   libcovrt:libcovrt.dll
 0001:00014ea2       covrtFcnInit               0000000180015ea2 f   libcovrt:libcovrt.dll
 0001:00014ea8       covrtScriptInit            0000000180015ea8 f   libcovrt:libcovrt.dll
 0001:00014eae       covrtAllocateInstanceData  0000000180015eae f   libcovrt:libcovrt.dll
 0001:00014eb4       covrtLogIf                 0000000180015eb4 f   libcovrt:libcovrt.dll
 0001:00014eba       covrtFreeInstanceData      0000000180015eba f   libcovrt:libcovrt.dll
 0001:00014ec0       __GSHandlerCheckCommon     0000000180015ec0 f   MSVCRT:gshandler.obj
 0001:00014f24       __GSHandlerCheck           0000000180015f24 f   MSVCRT:gshandler.obj
 0001:00014f42       strcmp                     0000000180015f42 f   MSVCRT:MSVCR100.dll
 0001:00014f60       __security_check_cookie    0000000180015f60 f   MSVCRT:amdsecgs.obj
 0001:00014f80       _setjmp                    0000000180015f80 f   MSVCRT:MSVCR100.dll
 0001:00014f86       calloc                     0000000180015f86 f   MSVCRT:MSVCR100.dll
 0001:00014f8c       free                       0000000180015f8c f   MSVCRT:MSVCR100.dll
 0001:00014f92       sprintf                    0000000180015f92 f   MSVCRT:MSVCR100.dll
 0001:00014f98       malloc                     0000000180015f98 f   MSVCRT:MSVCR100.dll
 0001:00014f9e       strlen                     0000000180015f9e f   MSVCRT:MSVCR100.dll
 0001:00014fa4       strcat                     0000000180015fa4 f   MSVCRT:MSVCR100.dll
 0001:00014faa       memcpy                     0000000180015faa f   MSVCRT:MSVCR100.dll
 0001:00014fb0       NtCurrentTeb               0000000180015fb0 f i MSVCRT:crtdll.obj
 0001:0001501c       _CRT_INIT                  000000018001601c f   MSVCRT:crtdll.obj
 0001:000153b4       _DllMainCRTStartup         00000001800163b4 f   MSVCRT:crtdll.obj
 0001:000153f4       __report_gsfailure         00000001800163f4 f   MSVCRT:gs_report.obj
 0001:00015540       __clean_type_info_names    0000000180016540 f   MSVCRT:tncleanup.obj
 0001:0001554c       _onexit                    000000018001654c f   MSVCRT:atonexit.obj
 0001:000155fc       atexit                     00000001800165fc f   MSVCRT:atonexit.obj
 0001:00015614       _RTC_Initialize            0000000180016614 f   MSVCRT:_initsect_.obj
 0001:0001564c       _RTC_Terminate             000000018001664c f   MSVCRT:_initsect_.obj
 0001:00015684       _malloc_crt                0000000180016684 f   MSVCRT:MSVCR100.dll
 0001:00015690       _ValidateImageBase         0000000180016690 f   MSVCRT:pesect.obj
 0001:000156c0       _FindPESection             00000001800166c0 f   MSVCRT:pesect.obj
 0001:00015710       _IsNonwritableInCurrentImage 0000000180016710 f   MSVCRT:pesect.obj
 0001:00015752       _initterm                  0000000180016752 f   MSVCRT:MSVCR100.dll
 0001:00015758       _initterm_e                0000000180016758 f   MSVCRT:MSVCR100.dll
 0001:0001575e       _encoded_null              000000018001675e f   MSVCRT:MSVCR100.dll
 0001:00015764       _amsg_exit                 0000000180016764 f   MSVCRT:MSVCR100.dll
 0001:0001576a       __C_specific_handler       000000018001676a f   MSVCRT:MSVCR100.dll
 0001:00015770       __CppXcptFilter            0000000180016770 f   MSVCRT:MSVCR100.dll
 0001:00015778       DllMain                    0000000180016778 f   MSVCRT:dllmain.obj
 0001:0001579c       __security_init_cookie     000000018001679c f   MSVCRT:gs_support.obj
 0001:00015850       __crt_debugger_hook        0000000180016850 f   MSVCRT:MSVCR100.dll
 0001:00015856       __clean_type_info_names_internal 0000000180016856 f   MSVCRT:MSVCR100.dll
 0001:0001585c       _unlock                    000000018001685c f   MSVCRT:MSVCR100.dll
 0001:00015862       __dllonexit                0000000180016862 f   MSVCRT:MSVCR100.dll
 0001:00015868       _lock                      0000000180016868 f   MSVCRT:MSVCR100.dll
 0001:0001586e       EncodePointer              000000018001686e f   kernel32:KERNEL32.dll
 0001:00015874       DecodePointer              0000000180016874 f   kernel32:KERNEL32.dll
 0001:0001587a       Sleep                      000000018001687a f   kernel32:KERNEL32.dll
 0001:00015880       TerminateProcess           0000000180016880 f   kernel32:KERNEL32.dll
 0001:00015886       GetCurrentProcess          0000000180016886 f   kernel32:KERNEL32.dll
 0001:0001588c       UnhandledExceptionFilter   000000018001688c f   kernel32:KERNEL32.dll
 0001:00015892       SetUnhandledExceptionFilter 0000000180016892 f   kernel32:KERNEL32.dll
 0001:00015898       IsDebuggerPresent          0000000180016898 f   kernel32:KERNEL32.dll
 0001:0001589e       RtlVirtualUnwind           000000018001689e f   kernel32:KERNEL32.dll
 0001:000158a4       RtlLookupFunctionEntry     00000001800168a4 f   kernel32:KERNEL32.dll
 0001:000158aa       RtlCaptureContext          00000001800168aa f   kernel32:KERNEL32.dll
 0001:000158b0       DisableThreadLibraryCalls  00000001800168b0 f   kernel32:KERNEL32.dll
 0001:000158b6       QueryPerformanceCounter    00000001800168b6 f   kernel32:KERNEL32.dll
 0001:000158bc       GetTickCount               00000001800168bc f   kernel32:KERNEL32.dll
 0001:000158c2       GetCurrentThreadId         00000001800168c2 f   kernel32:KERNEL32.dll
 0001:000158c8       GetCurrentProcessId        00000001800168c8 f   kernel32:KERNEL32.dll
 0001:000158ce       GetSystemTimeAsFileTime    00000001800168ce f   kernel32:KERNEL32.dll
 0002:00000000       __imp_GetSystemTimeAsFileTime 0000000180017000     kernel32:KERNEL32.dll
 0002:00000008       __imp_GetCurrentProcessId  0000000180017008     kernel32:KERNEL32.dll
 0002:00000010       __imp_GetCurrentThreadId   0000000180017010     kernel32:KERNEL32.dll
 0002:00000018       __imp_GetTickCount         0000000180017018     kernel32:KERNEL32.dll
 0002:00000020       __imp_QueryPerformanceCounter 0000000180017020     kernel32:KERNEL32.dll
 0002:00000028       __imp_DisableThreadLibraryCalls 0000000180017028     kernel32:KERNEL32.dll
 0002:00000030       __imp_RtlCaptureContext    0000000180017030     kernel32:KERNEL32.dll
 0002:00000038       __imp_RtlLookupFunctionEntry 0000000180017038     kernel32:KERNEL32.dll
 0002:00000040       __imp_RtlVirtualUnwind     0000000180017040     kernel32:KERNEL32.dll
 0002:00000048       __imp_IsDebuggerPresent    0000000180017048     kernel32:KERNEL32.dll
 0002:00000050       __imp_SetUnhandledExceptionFilter 0000000180017050     kernel32:KERNEL32.dll
 0002:00000058       __imp_UnhandledExceptionFilter 0000000180017058     kernel32:KERNEL32.dll
 0002:00000060       __imp_GetCurrentProcess    0000000180017060     kernel32:KERNEL32.dll
 0002:00000068       __imp_TerminateProcess     0000000180017068     kernel32:KERNEL32.dll
 0002:00000070       __imp_Sleep                0000000180017070     kernel32:KERNEL32.dll
 0002:00000078       __imp_DecodePointer        0000000180017078     kernel32:KERNEL32.dll
 0002:00000080       __imp_EncodePointer        0000000180017080     kernel32:KERNEL32.dll
 0002:00000088       \177KERNEL32_NULL_THUNK_DATA 0000000180017088     kernel32:KERNEL32.dll
 0002:00000090       __imp__onexit              0000000180017090     MSVCRT:MSVCR100.dll
 0002:00000098       __imp__lock                0000000180017098     MSVCRT:MSVCR100.dll
 0002:000000a0       __imp___dllonexit          00000001800170a0     MSVCRT:MSVCR100.dll
 0002:000000a8       __imp__unlock              00000001800170a8     MSVCRT:MSVCR100.dll
 0002:000000b0       __imp___clean_type_info_names_internal 00000001800170b0     MSVCRT:MSVCR100.dll
 0002:000000b8       __imp___crt_debugger_hook  00000001800170b8     MSVCRT:MSVCR100.dll
 0002:000000c0       __imp___CppXcptFilter      00000001800170c0     MSVCRT:MSVCR100.dll
 0002:000000c8       __imp___C_specific_handler 00000001800170c8     MSVCRT:MSVCR100.dll
 0002:000000d0       __imp__amsg_exit           00000001800170d0     MSVCRT:MSVCR100.dll
 0002:000000d8       __imp__encoded_null        00000001800170d8     MSVCRT:MSVCR100.dll
 0002:000000e0       __imp__initterm_e          00000001800170e0     MSVCRT:MSVCR100.dll
 0002:000000e8       __imp__initterm            00000001800170e8     MSVCRT:MSVCR100.dll
 0002:000000f0       __imp_memcpy               00000001800170f0     MSVCRT:MSVCR100.dll
 0002:000000f8       __imp_strcat               00000001800170f8     MSVCRT:MSVCR100.dll
 0002:00000100       __imp_strlen               0000000180017100     MSVCRT:MSVCR100.dll
 0002:00000108       __imp_malloc               0000000180017108     MSVCRT:MSVCR100.dll
 0002:00000110       __imp_sprintf              0000000180017110     MSVCRT:MSVCR100.dll
 0002:00000118       __imp_free                 0000000180017118     MSVCRT:MSVCR100.dll
 0002:00000120       __imp_calloc               0000000180017120     MSVCRT:MSVCR100.dll
 0002:00000128       __imp__setjmp              0000000180017128     MSVCRT:MSVCR100.dll
 0002:00000130       __imp__malloc_crt          0000000180017130     MSVCRT:MSVCR100.dll
 0002:00000138       __imp_strcmp               0000000180017138     MSVCRT:MSVCR100.dll
 0002:00000140       \177MSVCR100_NULL_THUNK_DATA 0000000180017140     MSVCRT:MSVCR100.dll
 0002:00000148       __imp_covrtScriptStart     0000000180017148     libcovrt:libcovrt.dll
 0002:00000150       __imp_covrtFreeInstanceData 0000000180017150     libcovrt:libcovrt.dll
 0002:00000158       __imp_covrtLogIf           0000000180017158     libcovrt:libcovrt.dll
 0002:00000160       __imp_covrtAllocateInstanceData 0000000180017160     libcovrt:libcovrt.dll
 0002:00000168       __imp_covrtScriptInit      0000000180017168     libcovrt:libcovrt.dll
 0002:00000170       __imp_covrtFcnInit         0000000180017170     libcovrt:libcovrt.dll
 0002:00000178       __imp_covrtBasicBlockInit  0000000180017178     libcovrt:libcovrt.dll
 0002:00000180       __imp_covrtIfInit          0000000180017180     libcovrt:libcovrt.dll
 0002:00000188       __imp_covrtLogFcn          0000000180017188     libcovrt:libcovrt.dll
 0002:00000190       __imp_covrtLogBasicBlock   0000000180017190     libcovrt:libcovrt.dll
 0002:00000198       \177libcovrt_NULL_THUNK_DATA 0000000180017198     libcovrt:libcovrt.dll
 0002:000001a0       __imp_emlrtCallMATLABR2012b 00000001800171a0     libemlrt:libemlrt.dll
 0002:000001a8       __imp_emlrtNameCapturePostProcessR2013b 00000001800171a8     libemlrt:libemlrt.dll
 0002:000001b0       __imp_emlrtCreateCharArray 00000001800171b0     libemlrt:libemlrt.dll
 0002:000001b8       __imp_emlrtCreateStructArray 00000001800171b8     libemlrt:libemlrt.dll
 0002:000001c0       __imp_emlrtInitCharArrayR2013a 00000001800171c0     libemlrt:libemlrt.dll
 0002:000001c8       __imp_emlrtCheckBuiltInR2012b 00000001800171c8     libemlrt:libemlrt.dll
 0002:000001d0       __imp_emlrtCreateStructMatrix 00000001800171d0     libemlrt:libemlrt.dll
 0002:000001d8       __imp_emlrtCheckStructR2012b 00000001800171d8     libemlrt:libemlrt.dll
 0002:000001e0       __imp_emlrtGetFieldR2013a  00000001800171e0     libemlrt:libemlrt.dll
 0002:000001e8       __imp_emlrtGetCell         00000001800171e8     libemlrt:libemlrt.dll
 0002:000001f0       __imp_emlrtDestroyArray    00000001800171f0     libemlrt:libemlrt.dll
 0002:000001f8       __imp_emlrtAlias           00000001800171f8     libemlrt:libemlrt.dll
 0002:00000200       __imp_emlrtCreateCellMatrix 0000000180017200     libemlrt:libemlrt.dll
 0002:00000208       __imp_emlrtAssign          0000000180017208     libemlrt:libemlrt.dll
 0002:00000210       __imp_emlrtCreateString    0000000180017210     libemlrt:libemlrt.dll
 0002:00000218       __imp_emlrtCreateNumericMatrix 0000000180017218     libemlrt:libemlrt.dll
 0002:00000220       __imp_emlrtCreateDoubleScalar 0000000180017220     libemlrt:libemlrt.dll
 0002:00000228       __imp_emlrtCreateNumericArray 0000000180017228     libemlrt:libemlrt.dll
 0002:00000230       __imp_emlrtSetCell         0000000180017230     libemlrt:libemlrt.dll
 0002:00000238       __imp_emlrtCreateLogicalScalar 0000000180017238     libemlrt:libemlrt.dll
 0002:00000240       __imp_emlrtSetJmpBuf       0000000180017240     libemlrt:libemlrt.dll
 0002:00000248       __imp_emlrtRetrieveRunTimeError 0000000180017248     libemlrt:libemlrt.dll
 0002:00000250       __imp_emlrtDestroyRootTLS  0000000180017250     libemlrt:libemlrt.dll
 0002:00000258       __imp_emlrtCreateSimulinkRootTLS 0000000180017258     libemlrt:libemlrt.dll
 0002:00000260       __imp_emlrtAddField        0000000180017260     libemlrt:libemlrt.dll
 0002:00000268       \177libemlrt_NULL_THUNK_DATA 0000000180017268     libemlrt:libemlrt.dll
 0002:00000270       __imp_mexErrMsgTxt         0000000180017270     libmex:libmex.dll
 0002:00000278       __imp_mexCallMATLABWithObject 0000000180017278     libmex:libmex.dll
 0002:00000280       __imp_mexPrintf            0000000180017280     libmex:libmex.dll
 0002:00000288       __imp_mexUnlock            0000000180017288     libmex:libmex.dll
 0002:00000290       __imp_mexIsLocked          0000000180017290     libmex:libmex.dll
 0002:00000298       __imp_mexWarnMsgTxt        0000000180017298     libmex:libmex.dll
 0002:000002a0       \177libmex_NULL_THUNK_DATA 00000001800172a0     libmex:libmex.dll
 0002:000002a8       __imp_muDoubleScalarCos    00000001800172a8     libmwmathutil:libmwmathutil.dll
 0002:000002b0       __imp_muDoubleScalarSign   00000001800172b0     libmwmathutil:libmwmathutil.dll
 0002:000002b8       __imp_muDoubleScalarAbs    00000001800172b8     libmwmathutil:libmwmathutil.dll
 0002:000002c0       __imp_muDoubleScalarSin    00000001800172c0     libmwmathutil:libmwmathutil.dll
 0002:000002c8       \177libmwmathutil_NULL_THUNK_DATA 00000001800172c8     libmwmathutil:libmwmathutil.dll
 0002:000002d0       __imp_mxCalloc             00000001800172d0     libmx:libmx.dll
 0002:000002d8       __imp_mxGetM               00000001800172d8     libmx:libmx.dll
 0002:000002e0       __imp_mxGetN               00000001800172e0     libmx:libmx.dll
 0002:000002e8       __imp_mxIsComplex          00000001800172e8     libmx:libmx.dll
 0002:000002f0       __imp_mxIsNumeric          00000001800172f0     libmx:libmx.dll
 0002:000002f8       __imp_mxCreateNumericMatrix_700 00000001800172f8     libmx:libmx.dll
 0002:00000300       __imp_mxCreateStructMatrix_700 0000000180017300     libmx:libmx.dll
 0002:00000308       __imp_mxSetField_700       0000000180017308     libmx:libmx.dll
 0002:00000310       __imp_mxCreateDoubleMatrix_700 0000000180017310     libmx:libmx.dll
 0002:00000318       __imp_mxIsChar             0000000180017318     libmx:libmx.dll
 0002:00000320       __imp_mxGetClassID         0000000180017320     libmx:libmx.dll
 0002:00000328       __imp_mxCreateString       0000000180017328     libmx:libmx.dll
 0002:00000330       __imp_mxCreateCellMatrix_700 0000000180017330     libmx:libmx.dll
 0002:00000338       __imp_mxSetCell_700        0000000180017338     libmx:libmx.dll
 0002:00000340       __imp_mxGetLogicals        0000000180017340     libmx:libmx.dll
 0002:00000348       __imp_mxGetData            0000000180017348     libmx:libmx.dll
 0002:00000350       __imp_mxGetPr              0000000180017350     libmx:libmx.dll
 0002:00000358       __imp_mxGetString_700      0000000180017358     libmx:libmx.dll
 0002:00000360       \177libmx_NULL_THUNK_DATA  0000000180017360     libmx:libmx.dll
 0002:00000368       __xc_a                     0000000180017368     MSVCRT:cinitexe.obj
 0002:00000370       __xc_z                     0000000180017370     MSVCRT:cinitexe.obj
 0002:00000378       __xi_a                     0000000180017378     MSVCRT:cinitexe.obj
 0002:00000388       __xi_z                     0000000180017388     MSVCRT:cinitexe.obj
 0002:00000448       __real@3fe5555555555555    0000000180017448     m_eJG1O6WbMNFUvHWZ3mwzSC.obj
 0002:00000450       __real@4000000000000000    0000000180017450     m_eJG1O6WbMNFUvHWZ3mwzSC.obj
 0002:00000458       __real@3fdeb851eb851eb8    0000000180017458     m_eJG1O6WbMNFUvHWZ3mwzSC.obj
 0002:00000460       __real@3fe0000000000000    0000000180017460     m_eJG1O6WbMNFUvHWZ3mwzSC.obj
 0002:00000468       __real@40239eb851eb851f    0000000180017468     m_eJG1O6WbMNFUvHWZ3mwzSC.obj
 0002:00000470       __real@3f689374bc6a7efa    0000000180017470     m_eJG1O6WbMNFUvHWZ3mwzSC.obj
 0002:00000478       __real@3f947ae147ae147b    0000000180017478     m_eJG1O6WbMNFUvHWZ3mwzSC.obj
 0002:00000480       __mask@@NegDouble@         0000000180017480     m_eJG1O6WbMNFUvHWZ3mwzSC.obj
 0002:00000490       DYNAMIC_DIMENSION_DEF      0000000180017490     CylinderSim_cgxe_registry.obj
 0002:000004b0       _ssBadLevel2InputAccessMsg 00000001800174b0     CylinderSim_cgxe_registry.obj
 0002:00000640       _ssBadLevel2DirectFeedMsg  0000000180017640     CylinderSim_cgxe_registry.obj
 0002:00000780       _ssBadLevel2DirectFeedSolutionMsg 0000000180017780     CylinderSim_cgxe_registry.obj
 0002:000007f0       _ssBadLevel2ZeroDirectFeedMsg 00000001800177f0     CylinderSim_cgxe_registry.obj
 0002:00000930       _ssBadLevel2ZeroDirectFeedMsg2 0000000180017930     CylinderSim_cgxe_registry.obj
 0002:00000a18       __real@0000000000000000    0000000180017a18     CylinderSim_cgxe_registry.obj
 0002:00000a20       __real@bff0000000000000    0000000180017a20     CylinderSim_cgxe_registry.obj
 0002:00000a28       __real@41e66c8f69c00000    0000000180017a28     CylinderSim_cgxe_registry.obj
 0002:00000a30       __real@41e56f48a7a00000    0000000180017a30     CylinderSim_cgxe_registry.obj
 0002:00000a38       __real@41e818950c800000    0000000180017a38     CylinderSim_cgxe_registry.obj
 0002:00000a40       __real@41d2469d20c00000    0000000180017a40     CylinderSim_cgxe_registry.obj
 0002:00000a48       __real@41dcd0098d400000    0000000180017a48     CylinderSim_cgxe_registry.obj
 0002:00000a50       __real@41e704b96b000000    0000000180017a50     CylinderSim_cgxe_registry.obj
 0002:00000a58       __real@41bb93748c000000    0000000180017a58     CylinderSim_cgxe_registry.obj
 0002:00000a60       __real@41ef4ccd0ce00000    0000000180017a60     CylinderSim_cgxe_registry.obj
 0002:00000a68       __real@41b7b71f9d000000    0000000180017a68     CylinderSim_cgxe_registry.obj
 0002:00000a70       __real@41eb8593c1000000    0000000180017a70     CylinderSim_cgxe_registry.obj
 0002:00000a78       __real@41efed36c9a00000    0000000180017a78     CylinderSim_cgxe_registry.obj
 0002:00000a80       __real@41c560cca0800000    0000000180017a80     CylinderSim_cgxe_registry.obj
 0002:00000a88       __real@41bb2a5e4c000000    0000000180017a88     CylinderSim_cgxe_registry.obj
 0002:00000a90       __real@41ea24e5df400000    0000000180017a90     CylinderSim_cgxe_registry.obj
 0002:00000a98       __real@41c67b2cfc800000    0000000180017a98     CylinderSim_cgxe_registry.obj
 0002:00000aa0       __real@41e783c3c2c00000    0000000180017aa0     CylinderSim_cgxe_registry.obj
 0002:00000aa8       __real@41602cbca0000000    0000000180017aa8     CylinderSim_cgxe_registry.obj
 0002:00000ab0       _pRawDllMain               0000000180017ab0     MSVCRT:crtdll.obj
 0002:00000ab0       _pDefaultRawDllMain        0000000180017ab0     MSVCRT:crtdll.obj
 0002:00000ac8       ?ProcessDetach@NativeDll@<CrtImplementationDetails>@@0IB 0000000180017ac8     MSVCRT:tncleanup.obj
 0002:00000acc       ?ProcessAttach@NativeDll@<CrtImplementationDetails>@@0IB 0000000180017acc     MSVCRT:tncleanup.obj
 0002:00000ad0       ?ThreadAttach@NativeDll@<CrtImplementationDetails>@@0IB 0000000180017ad0     MSVCRT:tncleanup.obj
 0002:00000ad4       ?ThreadDetach@NativeDll@<CrtImplementationDetails>@@0IB 0000000180017ad4     MSVCRT:tncleanup.obj
 0002:00000ad8       ?ProcessVerifier@NativeDll@<CrtImplementationDetails>@@0IB 0000000180017ad8     MSVCRT:tncleanup.obj
 0002:00000ae0       __rtc_iaa                  0000000180017ae0     MSVCRT:_initsect_.obj
 0002:00000ae8       __rtc_izz                  0000000180017ae8     MSVCRT:_initsect_.obj
 0002:00000af0       __rtc_taa                  0000000180017af0     MSVCRT:_initsect_.obj
 0002:00000af8       __rtc_tzz                  0000000180017af8     MSVCRT:_initsect_.obj
 0002:000010c8       __IMPORT_DESCRIPTOR_libmx  00000001800180c8     libmx:libmx.dll
 0002:000010dc       __IMPORT_DESCRIPTOR_libmex 00000001800180dc     libmex:libmex.dll
 0002:000010f0       __IMPORT_DESCRIPTOR_libmwmathutil 00000001800180f0     libmwmathutil:libmwmathutil.dll
 0002:00001104       __IMPORT_DESCRIPTOR_libemlrt 0000000180018104     libemlrt:libemlrt.dll
 0002:00001118       __IMPORT_DESCRIPTOR_libcovrt 0000000180018118     libcovrt:libcovrt.dll
 0002:0000112c       __IMPORT_DESCRIPTOR_MSVCR100 000000018001812c     MSVCRT:MSVCR100.dll
 0002:00001140       __IMPORT_DESCRIPTOR_KERNEL32 0000000180018140     kernel32:KERNEL32.dll
 0002:00001154       __NULL_IMPORT_DESCRIPTOR   0000000180018154     libmx:libmx.dll
 0003:00000000       emlrtContextGlobal         0000000180019000     CylinderSim_cgxe.obj
 0003:00007000       DYNAMIC_DIMENSION          0000000180020000     CylinderSim_cgxe_registry.obj
 0003:00007c90       __security_cookie          0000000180020c90     MSVCRT:gs_cookie.obj
 0003:00007c98       __security_cookie_complement 0000000180020c98     MSVCRT:gs_cookie.obj
 0003:00007ca0       _fltused                   0000000180020ca0     MSVCRT:dllsupp.obj
 0003:00007ca4       __native_dllmain_reason    0000000180020ca4     MSVCRT:natstart.obj
 0003:00007ca8       __native_vcclrit_reason    0000000180020ca8     MSVCRT:natstart.obj
 0003:00007cc8       emlrtRootTLSGlobal         0000000180020cc8     CylinderSim_cgxe.obj
 0003:00008330       ?__type_info_root_node@@3U__type_info_node@@A 0000000180021330     MSVCRT:tncleanup.obj
 0003:00008340       cgxeRtErrBuf               0000000180021340     <common>
 0003:00009340       __native_startup_state     0000000180022340     <common>
 0003:00009348       __native_startup_lock      0000000180022348     <common>
 0003:00009350       __onexitend                0000000180022350     <common>
 0003:00009358       __onexitbegin              0000000180022358     <common>
 0003:00009360       __dyn_tls_init_callback    0000000180022360     <common>

 entry point at        0001:000153b4

 Static symbols

 0001:00000240       getSimState_eJG1O6WbMNFUvHWZ3mwzSC 0000000180001240 f   m_eJG1O6WbMNFUvHWZ3mwzSC.obj
 0001:00000310       mw__internal__getSimState__fcn 0000000180001310 f   m_eJG1O6WbMNFUvHWZ3mwzSC.obj
 0001:00000a30       setSimState_eJG1O6WbMNFUvHWZ3mwzSC 0000000180001a30 f   m_eJG1O6WbMNFUvHWZ3mwzSC.obj
 0001:00000b10       mw__internal__setSimState__fcn 0000000180001b10 f   m_eJG1O6WbMNFUvHWZ3mwzSC.obj
 0001:00000be0       emlrt_marshallIn           0000000180001be0 f   m_eJG1O6WbMNFUvHWZ3mwzSC.obj
 0001:00000c40       b_emlrt_marshallIn         0000000180001c40 f   m_eJG1O6WbMNFUvHWZ3mwzSC.obj
 0001:000011a0       c_emlrt_marshallIn         00000001800021a0 f   m_eJG1O6WbMNFUvHWZ3mwzSC.obj
 0001:000011f0       d_emlrt_marshallIn         00000001800021f0 f   m_eJG1O6WbMNFUvHWZ3mwzSC.obj
 0001:00001240       e_emlrt_marshallIn         0000000180002240 f   m_eJG1O6WbMNFUvHWZ3mwzSC.obj
 0001:00001290       f_emlrt_marshallIn         0000000180002290 f   m_eJG1O6WbMNFUvHWZ3mwzSC.obj
 0001:000012f0       g_emlrt_marshallIn         00000001800022f0 f   m_eJG1O6WbMNFUvHWZ3mwzSC.obj
 0001:00001340       h_emlrt_marshallIn         0000000180002340 f   m_eJG1O6WbMNFUvHWZ3mwzSC.obj
 0001:000013b0       i_emlrt_marshallIn         00000001800023b0 f   m_eJG1O6WbMNFUvHWZ3mwzSC.obj
 0001:00001420       j_emlrt_marshallIn         0000000180002420 f   m_eJG1O6WbMNFUvHWZ3mwzSC.obj
 0001:000014d0       k_emlrt_marshallIn         00000001800024d0 f   m_eJG1O6WbMNFUvHWZ3mwzSC.obj
 0001:00001540       mdlStart_eJG1O6WbMNFUvHWZ3mwzSC 0000000180002540 f   m_eJG1O6WbMNFUvHWZ3mwzSC.obj
 0001:000016c0       cgxe_mdl_start             00000001800026c0 f   m_eJG1O6WbMNFUvHWZ3mwzSC.obj
 0001:000026e0       message                    00000001800036e0 f   m_eJG1O6WbMNFUvHWZ3mwzSC.obj
 0001:00002760       error                      0000000180003760 f   m_eJG1O6WbMNFUvHWZ3mwzSC.obj
 0001:000027c0       mdlOutputs_eJG1O6WbMNFUvHWZ3mwzSC 00000001800037c0 f   m_eJG1O6WbMNFUvHWZ3mwzSC.obj
 0001:00002890       cgxe_mdl_outputs           0000000180003890 f   m_eJG1O6WbMNFUvHWZ3mwzSC.obj
 0001:00004da0       mdlInitialize_eJG1O6WbMNFUvHWZ3mwzSC 0000000180005da0 f   m_eJG1O6WbMNFUvHWZ3mwzSC.obj
 0001:00004e70       cgxe_mdl_initialize        0000000180005e70 f   m_eJG1O6WbMNFUvHWZ3mwzSC.obj
 0001:00005950       mdlUpdate_eJG1O6WbMNFUvHWZ3mwzSC 0000000180006950 f   m_eJG1O6WbMNFUvHWZ3mwzSC.obj
 0001:00005a20       cgxe_mdl_update            0000000180006a20 f   m_eJG1O6WbMNFUvHWZ3mwzSC.obj
 0001:00005a30       mdlTerminate_eJG1O6WbMNFUvHWZ3mwzSC 0000000180006a30 f   m_eJG1O6WbMNFUvHWZ3mwzSC.obj
 0001:00005b20       cgxe_mdl_terminate         0000000180006b20 f   m_eJG1O6WbMNFUvHWZ3mwzSC.obj
 0001:00006650       mdlProcessParameters_eJG1O6WbMNFUvHWZ3mwzSC 0000000180007650 f   m_eJG1O6WbMNFUvHWZ3mwzSC.obj
 0001:000066d0       mw__internal__name__resolution__fcn 00000001800076d0 f   m_eJG1O6WbMNFUvHWZ3mwzSC.obj
 0001:00006730       info_helper                0000000180007730 f   m_eJG1O6WbMNFUvHWZ3mwzSC.obj
 0001:0000b4f0       emlrt_marshallOut          000000018000c4f0 f   m_eJG1O6WbMNFUvHWZ3mwzSC.obj
 0001:0000b530       b_emlrt_marshallOut        000000018000c530 f   m_eJG1O6WbMNFUvHWZ3mwzSC.obj
 0001:0000b590       b_info_helper              000000018000c590 f   m_eJG1O6WbMNFUvHWZ3mwzSC.obj
 0001:0000d410       mw__internal__autoInference__fcn 000000018000e410 f   m_eJG1O6WbMNFUvHWZ3mwzSC.obj
 0001:00010ab0       _ssFatalError              0000000180011ab0 f   CylinderSim_cgxe_registry.obj
 0001:00013a00       mdlStart                   0000000180014a00 f   CylinderSim_cgxe_registry.obj
 0001:00013a40       mdlInitializeConditions    0000000180014a40 f   CylinderSim_cgxe_registry.obj
 0001:00013a60       mdlUpdate                  0000000180014a60 f   CylinderSim_cgxe_registry.obj
 0001:00013a90       mdlOutputs                 0000000180014a90 f   CylinderSim_cgxe_registry.obj
 0001:00013ac0       mdlTerminate               0000000180014ac0 f   CylinderSim_cgxe_registry.obj
 0001:00013ae0       mdlInitializeSampleTimes   0000000180014ae0 f   CylinderSim_cgxe_registry.obj
 0001:00013af0       ProcessMexSfunctionCmdLineCall 0000000180014af0 f   CylinderSim_cgxe_registry.obj
 0001:00013d70       cgxe_process_get_checksums 0000000180014d70 f   CylinderSim_cgxe_registry.obj
 0001:00014050       cgxe_get_supported_modules 0000000180015050 f   CylinderSim_cgxe_registry.obj
 0001:00014100       cgxe_mex_unlock_call       0000000180015100 f   CylinderSim_cgxe_registry.obj
 0001:00014140       cgxe_get_sim_state         0000000180015140 f   CylinderSim_cgxe_registry.obj
 0001:000141b0       cgxe_unpack_simstruct      00000001800151b0 f   CylinderSim_cgxe_registry.obj
 0001:00014250       cgxe_set_sim_state         0000000180015250 f   CylinderSim_cgxe_registry.obj
 0001:000142c0       cgxe_get_BuildInfoUpdate   00000001800152c0 f   CylinderSim_cgxe_registry.obj
 0001:00014360       mdlZeroCrossings           0000000180015360 f   CylinderSim_cgxe_registry.obj
 0001:000143b0       mdlGetTimeOfNextVarHit     00000001800153b0 f   CylinderSim_cgxe_registry.obj
 0001:00014400       _ProcessMexSfunctionCmdLineCall 0000000180015400 f   CylinderSim_cgxe_registry.obj
 0001:00014ab0       mdlInitializeSizes         0000000180015ab0 f   CylinderSim_cgxe_registry.obj
 0001:00014ac0       _CreateSimStruct           0000000180015ac0 f   CylinderSim_cgxe_registry.obj
 0001:00014c50       _RegNumInputPortsCB        0000000180015c50 f   CylinderSim_cgxe_registry.obj
 0001:00014cd0       _RegNumOutputPortsCB       0000000180015cd0 f   CylinderSim_cgxe_registry.obj
 0001:00014fbc       pre_c_init                 0000000180015fbc f   MSVCRT:crtdll.obj
 0001:00015278       __DllMainCRTStartup        0000000180016278 f   MSVCRT:crtdll.obj
 0001:000158e0       __DllMainCRTStartup$filt$0 00000001800168e0 f   MSVCRT:crtdll.obj
 0001:00015910       __DllMainCRTStartup$fin$1  0000000180016910 f   MSVCRT:crtdll.obj
 0001:0001592a       _onexit$fin$0              000000018001692a f   MSVCRT:atonexit.obj
 0001:00015950       _IsNonwritableInCurrentImage$filt$0 0000000180016950 f   MSVCRT:pesect.obj
